target datalayout = "e-m:e-p270:32:32-p271:32:32-p272:64:64-i64:64-i128:128-f80:128-n8:16:32:64-S128"
target triple = "x86_64-pc-linux-gnu"

@.str = private unnamed_addr constant [7 x i8] c"public\00", align 1
@.str.1 = private unnamed_addr constant [8 x i8] c"private\00", align 1
@.str.2 = private unnamed_addr constant [10 x i8] c"protected\00", align 1

; Function Attrs: nounwind uwtable
define hidden ptr @zend_visibility_string(i32 noundef %0) #0 {
  %2 = alloca ptr, align 8
  %3 = alloca i32, align 4
  store i32 %0, ptr %3, align 4, !tbaa !4
  %4 = load i32, ptr %3, align 4, !tbaa !4
  %5 = and i32 %4, 1
  %6 = icmp ne i32 %5, 0
  br i1 %6, label %7, label %8

7:                                                ; preds = %1
  store ptr @.str, ptr %2, align 8
  br label %17

8:                                                ; preds = %1
  %9 = load i32, ptr %3, align 4, !tbaa !4
  %10 = and i32 %9, 4
  %11 = icmp ne i32 %10, 0
  br i1 %11, label %12, label %13

12:                                               ; preds = %8
  store ptr @.str.1, ptr %2, align 8
  br label %17

13:                                               ; preds = %8
  %14 = load i32, ptr %3, align 4, !tbaa !4
  %15 = and i32 %14, 2
  %16 = icmp ne i32 %15, 0
  call void @llvm.assume(i1 %16)
  store ptr @.str.2, ptr %2, align 8
  br label %17

17:                                               ; preds = %13, %12, %7
  %18 = load ptr, ptr %2, align 8
  ret ptr %18
}