; Function Attrs: mustprogress nofree norecurse nosync nounwind willreturn memory(none) uwtable
define hidden noundef nonnull ptr @zend_visibility_string(i32 noundef %0) local_unnamed_addr #0 {
  %2 = and i32 %0, 1
  %.not = icmp eq i32 %2, 0
  %3 = and i32 %0, 4
  %.not3 = icmp eq i32 %3, 0
  %spec.select = select i1 %.not3, ptr @.str.2, ptr @.str.1
  %.0 = select i1 %.not, ptr %spec.select, ptr @.str
  ret ptr %.0
}